target datalayout = "e-m:e-p270:32:32-p271:32:32-p272:64:64-i64:64-i128:128-f80:128-n8:16:32:64-S128"
target triple = "x86_64-pc-linux-gnu"

%struct._capture_file = type { ptr, i32, ptr, ptr, i8, i8, i8, i64, i16, i32, i32, i32, ptr, i32, i64, i32, i32, i32, i32, i8, i32, %struct.nstime_t, i32, ptr, ptr, ptr, i8, i8, i32, ptr, i8, i8, i8, i8, i8, i32, i32, i8, ptr, i32, i32, i8, %struct.packet_provider_data, i32, i32, %struct.epan_column_info, ptr, ptr, ptr, %struct.wtap_rec, %struct.Buffer, ptr, i64, i32 }
%struct.nstime_t = type { i64, i32 }
%struct.packet_provider_data = type { ptr, ptr, ptr, ptr, ptr, ptr }
%struct.epan_column_info = type { ptr, i32, ptr, ptr, ptr, %struct.col_expr_t, i8, ptr }
%struct.col_expr_t = type { ptr, ptr }
%struct.wtap_rec = type { i32, i32, i32, %struct.nstime_t, i32, %struct.nstime_t, i8, %union.anon, ptr, i8, %struct.Buffer, %struct.Buffer }
%union.anon = type { %struct.wtap_packet_header }
%struct.wtap_packet_header = type { i32, i32, i32, i32, %union.wtap_pseudo_header }
%union.wtap_pseudo_header = type { %struct.erf_mc_phdr }
%struct.erf_mc_phdr = type { %struct.erf_phdr, [16 x %struct.erf_ehdr], %union.anon.1 }
%struct.erf_phdr = type { i64, i8, i8, i16, i16, i16 }
%struct.erf_ehdr = type { i64 }
%union.anon.1 = type { i32 }
%struct.Buffer = type { ptr, i64, i64, i64 }
%struct._frame_data = type <{ i32, i32, i32, i32, i32, [4 x i8], i64, ptr, ptr, ptr, i8, i16, [5 x i8], %struct.nstime_t, %struct.nstime_t, i32, i32 }>

; Function Attrs: null_pointer_is_valid sspstrong uwtable
define hidden void @cf_reftime_packets(ptr noundef %0) #1 {
  %2 = alloca ptr, align 8
  %3 = alloca i32, align 4
  %4 = alloca ptr, align 8
  %5 = alloca %struct.nstime_t, align 8
  store ptr %0, ptr %2, align 8
  call void @llvm.lifetime.start.p0(i64 4, ptr %3) #19
  call void @llvm.lifetime.start.p0(i64 8, ptr %4) #19
  call void @llvm.lifetime.start.p0(i64 16, ptr %5) #19
  %6 = load ptr, ptr %2, align 8
  %7 = getelementptr inbounds nuw %struct._capture_file, ptr %6, i32 0, i32 42
  %8 = getelementptr inbounds nuw %struct.packet_provider_data, ptr %7, i32 0, i32 1
  store ptr null, ptr %8, align 8
  %9 = load ptr, ptr %2, align 8
  %10 = getelementptr inbounds nuw %struct._capture_file, ptr %9, i32 0, i32 42
  %11 = getelementptr inbounds nuw %struct.packet_provider_data, ptr %10, i32 0, i32 2
  store ptr null, ptr %11, align 8
  %12 = load ptr, ptr %2, align 8
  %13 = getelementptr inbounds nuw %struct._capture_file, ptr %12, i32 0, i32 53
  store i32 0, ptr %13, align 8
  store i32 1, ptr %3, align 4
  br label %14

14:                                               ; preds = %189, %1
  %15 = load i32, ptr %3, align 4
  %16 = load ptr, ptr %2, align 8
  %17 = getelementptr inbounds nuw %struct._capture_file, ptr %16, i32 0, i32 13
  %18 = load i32, ptr %17, align 8
  %19 = icmp ule i32 %15, %18
  br i1 %19, label %20, label %192

20:                                               ; preds = %14
  %21 = load ptr, ptr %2, align 8
  %22 = getelementptr inbounds nuw %struct._capture_file, ptr %21, i32 0, i32 42
  %23 = getelementptr inbounds nuw %struct.packet_provider_data, ptr %22, i32 0, i32 4
  %24 = load ptr, ptr %23, align 8
  %25 = load i32, ptr %3, align 4
  %26 = call ptr @frame_data_sequence_find(ptr noundef %24, i32 noundef %25)
  store ptr %26, ptr %4, align 8
  %27 = load ptr, ptr %2, align 8
  %28 = getelementptr inbounds nuw %struct._capture_file, ptr %27, i32 0, i32 53
  %29 = load i32, ptr %28, align 8
  %30 = load ptr, ptr %4, align 8
  %31 = getelementptr inbounds nuw %struct._frame_data, ptr %30, i32 0, i32 2
  %32 = load i32, ptr %31, align 8
  %33 = add i32 %29, %32
  %34 = load ptr, ptr %4, align 8
  %35 = getelementptr inbounds nuw %struct._frame_data, ptr %34, i32 0, i32 4
  store i32 %33, ptr %35, align 8
  %36 = load ptr, ptr %4, align 8
  %37 = getelementptr inbounds nuw %struct._frame_data, ptr %36, i32 0, i32 11
  %38 = load i16, ptr %37, align 1
  %39 = lshr i16 %38, 7
  %40 = and i16 %39, 1
  %41 = zext i16 %40 to i32
  %42 = icmp ne i32 %41, 0
  br i1 %42, label %43, label %132

43:                                               ; preds = %20
  %44 = load ptr, ptr %2, align 8
  %45 = getelementptr inbounds nuw %struct._capture_file, ptr %44, i32 0, i32 42
  %46 = getelementptr inbounds nuw %struct.packet_provider_data, ptr %45, i32 0, i32 1
  %47 = load ptr, ptr %46, align 8
  %48 = icmp eq ptr %47, null
  br i1 %48, label %49, label %54

49:                                               ; preds = %43
  %50 = load ptr, ptr %4, align 8
  %51 = load ptr, ptr %2, align 8
  %52 = getelementptr inbounds nuw %struct._capture_file, ptr %51, i32 0, i32 42
  %53 = getelementptr inbounds nuw %struct.packet_provider_data, ptr %52, i32 0, i32 1
  store ptr %50, ptr %53, align 8
  br label %54

54:                                               ; preds = %49, %43
  %55 = load ptr, ptr %4, align 8
  %56 = getelementptr inbounds nuw %struct._frame_data, ptr %55, i32 0, i32 11
  %57 = load i16, ptr %56, align 1
  %58 = lshr i16 %57, 5
  %59 = and i16 %58, 1
  %60 = zext i16 %59 to i32
  %61 = icmp ne i32 %60, 0
  br i1 %61, label %62, label %67

62:                                               ; preds = %54
  %63 = load ptr, ptr %4, align 8
  %64 = load ptr, ptr %2, align 8
  %65 = getelementptr inbounds nuw %struct._capture_file, ptr %64, i32 0, i32 42
  %66 = getelementptr inbounds nuw %struct.packet_provider_data, ptr %65, i32 0, i32 1
  store ptr %63, ptr %66, align 8
  br label %67

67:                                               ; preds = %62, %54
  %68 = load ptr, ptr %4, align 8
  %69 = load ptr, ptr %2, align 8
  %70 = getelementptr inbounds nuw %struct._capture_file, ptr %69, i32 0, i32 42
  %71 = getelementptr inbounds nuw %struct.packet_provider_data, ptr %70, i32 0, i32 1
  %72 = load ptr, ptr %71, align 8
  %73 = icmp ne ptr %68, %72
  br i1 %73, label %74, label %81

74:                                               ; preds = %67
  %75 = load ptr, ptr %2, align 8
  %76 = getelementptr inbounds nuw %struct._capture_file, ptr %75, i32 0, i32 42
  %77 = getelementptr inbounds nuw %struct.packet_provider_data, ptr %76, i32 0, i32 1
  %78 = load ptr, ptr %77, align 8
  %79 = getelementptr inbounds nuw %struct._frame_data, ptr %78, i32 0, i32 0
  %80 = load i32, ptr %79, align 8
  br label %82

81:                                               ; preds = %67
  br label %82

82:                                               ; preds = %81, %74
  %83 = phi i32 [ %80, %74 ], [ 0, %81 ]
  %84 = load ptr, ptr %4, align 8
  %85 = getelementptr inbounds nuw %struct._frame_data, ptr %84, i32 0, i32 15
  store i32 %83, ptr %85, align 8
  %86 = load ptr, ptr %4, align 8
  %87 = getelementptr inbounds nuw %struct._frame_data, ptr %86, i32 0, i32 13
  %88 = load ptr, ptr %2, align 8
  %89 = getelementptr inbounds nuw %struct._capture_file, ptr %88, i32 0, i32 42
  %90 = getelementptr inbounds nuw %struct.packet_provider_data, ptr %89, i32 0, i32 1
  %91 = load ptr, ptr %90, align 8
  %92 = getelementptr inbounds nuw %struct._frame_data, ptr %91, i32 0, i32 13
  call void @nstime_delta(ptr noundef %5, ptr noundef %87, ptr noundef %92)
  %93 = load ptr, ptr %2, align 8
  %94 = getelementptr inbounds nuw %struct._capture_file, ptr %93, i32 0, i32 21
  %95 = call i32 @nstime_cmp(ptr noundef %94, ptr noundef %5)
  %96 = icmp slt i32 %95, 0
  br i1 %96, label %97, label %100

97:                                               ; preds = %82
  %98 = load ptr, ptr %2, align 8
  %99 = getelementptr inbounds nuw %struct._capture_file, ptr %98, i32 0, i32 21
  call void @llvm.memcpy.p0.p0.i64(ptr align 8 %99, ptr align 8 %5, i64 16, i1 false)
  br label %100

100:                                              ; preds = %97, %82
  %101 = load ptr, ptr %4, align 8
  %102 = getelementptr inbounds nuw %struct._frame_data, ptr %101, i32 0, i32 11
  %103 = load i16, ptr %102, align 1
  %104 = and i16 %103, 1
  %105 = zext i16 %104 to i32
  %106 = icmp ne i32 %105, 0
  br i1 %106, label %107, label %131

107:                                              ; preds = %100
  %108 = load ptr, ptr %2, align 8
  %109 = getelementptr inbounds nuw %struct._capture_file, ptr %108, i32 0, i32 42
  %110 = getelementptr inbounds nuw %struct.packet_provider_data, ptr %109, i32 0, i32 2
  %111 = load ptr, ptr %110, align 8
  %112 = icmp eq ptr %111, null
  br i1 %112, label %113, label %118

113:                                              ; preds = %107
  %114 = load ptr, ptr %4, align 8
  %115 = load ptr, ptr %2, align 8
  %116 = getelementptr inbounds nuw %struct._capture_file, ptr %115, i32 0, i32 42
  %117 = getelementptr inbounds nuw %struct.packet_provider_data, ptr %116, i32 0, i32 2
  store ptr %114, ptr %117, align 8
  br label %118

118:                                              ; preds = %113, %107
  %119 = load ptr, ptr %2, align 8
  %120 = getelementptr inbounds nuw %struct._capture_file, ptr %119, i32 0, i32 42
  %121 = getelementptr inbounds nuw %struct.packet_provider_data, ptr %120, i32 0, i32 2
  %122 = load ptr, ptr %121, align 8
  %123 = getelementptr inbounds nuw %struct._frame_data, ptr %122, i32 0, i32 0
  %124 = load i32, ptr %123, align 8
  %125 = load ptr, ptr %4, align 8
  %126 = getelementptr inbounds nuw %struct._frame_data, ptr %125, i32 0, i32 16
  store i32 %124, ptr %126, align 4
  %127 = load ptr, ptr %4, align 8
  %128 = load ptr, ptr %2, align 8
  %129 = getelementptr inbounds nuw %struct._capture_file, ptr %128, i32 0, i32 42
  %130 = getelementptr inbounds nuw %struct.packet_provider_data, ptr %129, i32 0, i32 2
  store ptr %127, ptr %130, align 8
  br label %131

131:                                              ; preds = %118, %100
  br label %145

132:                                              ; preds = %20
  %133 = load ptr, ptr %4, align 8
  %134 = getelementptr inbounds nuw %struct._frame_data, ptr %133, i32 0, i32 11
  %135 = load i16, ptr %134, align 1
  %136 = lshr i16 %135, 5
  %137 = and i16 %136, 1
  %138 = zext i16 %137 to i32
  %139 = icmp ne i32 %138, 0
  br i1 %139, label %140, label %144

140:                                              ; preds = %132
  %141 = load ptr, ptr %2, align 8
  %142 = getelementptr inbounds nuw %struct._capture_file, ptr %141, i32 0, i32 42
  %143 = getelementptr inbounds nuw %struct.packet_provider_data, ptr %142, i32 0, i32 1
  store ptr null, ptr %143, align 8
  br label %144

144:                                              ; preds = %140, %132
  br label %145

145:                                              ; preds = %144, %131
  %146 = load ptr, ptr %4, align 8
  %147 = getelementptr inbounds nuw %struct._frame_data, ptr %146, i32 0, i32 11
  %148 = load i16, ptr %147, align 1
  %149 = and i16 %148, 1
  %150 = zext i16 %149 to i32
  %151 = icmp ne i32 %150, 0
  br i1 %151, label %160, label %152

152:                                              ; preds = %145
  %153 = load ptr, ptr %4, align 8
  %154 = getelementptr inbounds nuw %struct._frame_data, ptr %153, i32 0, i32 11
  %155 = load i16, ptr %154, align 1
  %156 = lshr i16 %155, 5
  %157 = and i16 %156, 1
  %158 = zext i16 %157 to i32
  %159 = icmp ne i32 %158, 0
  br i1 %159, label %160, label %188

160:                                              ; preds = %152, %145
  %161 = load ptr, ptr %4, align 8
  %162 = getelementptr inbounds nuw %struct._frame_data, ptr %161, i32 0, i32 11
  %163 = load i16, ptr %162, align 1
  %164 = lshr i16 %163, 5
  %165 = and i16 %164, 1
  %166 = zext i16 %165 to i32
  %167 = icmp ne i32 %166, 0
  br i1 %167, label %168, label %179

168:                                              ; preds = %160
  %169 = load ptr, ptr %4, align 8
  %170 = getelementptr inbounds nuw %struct._frame_data, ptr %169, i32 0, i32 2
  %171 = load i32, ptr %170, align 8
  %172 = load ptr, ptr %2, align 8
  %173 = getelementptr inbounds nuw %struct._capture_file, ptr %172, i32 0, i32 53
  store i32 %171, ptr %173, align 8
  %174 = load ptr, ptr %2, align 8
  %175 = getelementptr inbounds nuw %struct._capture_file, ptr %174, i32 0, i32 53
  %176 = load i32, ptr %175, align 8
  %177 = load ptr, ptr %4, align 8
  %178 = getelementptr inbounds nuw %struct._frame_data, ptr %177, i32 0, i32 4
  store i32 %176, ptr %178, align 8
  br label %187

179:                                              ; preds = %160
  %180 = load ptr, ptr %4, align 8
  %181 = getelementptr inbounds nuw %struct._frame_data, ptr %180, i32 0, i32 2
  %182 = load i32, ptr %181, align 8
  %183 = load ptr, ptr %2, align 8
  %184 = getelementptr inbounds nuw %struct._capture_file, ptr %183, i32 0, i32 53
  %185 = load i32, ptr %184, align 8
  %186 = add i32 %185, %182
  store i32 %186, ptr %184, align 8
  br label %187

187:                                              ; preds = %179, %168
  br label %188

188:                                              ; preds = %187, %152
  br label %189

189:                                              ; preds = %188
  %190 = load i32, ptr %3, align 4
  %191 = add i32 %190, 1
  store i32 %191, ptr %3, align 4
  br label %14, !llvm.loop !17

192:                                              ; preds = %14
  call void @llvm.lifetime.end.p0(i64 16, ptr %5) #19
  call void @llvm.lifetime.end.p0(i64 8, ptr %4) #19
  call void @llvm.lifetime.end.p0(i64 4, ptr %3) #19
  ret void
}