; Function Attrs: null_pointer_is_valid sspstrong uwtable
define hidden void @cf_reftime_packets(ptr noundef initializes((232, 248), (736, 740)) %0) local_unnamed_addr #1 {
  %2 = alloca %struct.nstime_t, align 8
  call void @llvm.lifetime.start.p0(i64 16, ptr nonnull %2) #23
  %3 = getelementptr inbounds nuw i8, ptr %0, i64 232
  %4 = getelementptr inbounds nuw i8, ptr %0, i64 240
  %5 = getelementptr inbounds nuw i8, ptr %0, i64 736
  store i32 0, ptr %5, align 8
  %6 = getelementptr inbounds nuw i8, ptr %0, i64 72
  tail call void @llvm.memset.p0.i64(ptr noundef nonnull align 8 dereferenceable(16) %3, i8 0, i64 16, i1 false)
  %7 = load i32, ptr %6, align 8
  %.not53 = icmp eq i32 %7, 0
  br i1 %.not53, label %._crit_edge, label %.lr.ph

.lr.ph:                                           ; preds = %1
  %8 = getelementptr inbounds nuw i8, ptr %0, i64 256
  %9 = getelementptr inbounds nuw i8, ptr %0, i64 112
  br label %10

10:                                               ; preds = %.lr.ph, %65
  %.054 = phi i32 [ 1, %.lr.ph ], [ %66, %65 ]
  %11 = load ptr, ptr %8, align 8
  %12 = call ptr @frame_data_sequence_find(ptr noundef %11, i32 noundef %.054)
  %13 = load i32, ptr %5, align 8
  %14 = getelementptr inbounds nuw i8, ptr %12, i64 8
  %15 = load i32, ptr %14, align 8
  %16 = add i32 %15, %13
  %17 = getelementptr inbounds nuw i8, ptr %12, i64 16
  store i32 %16, ptr %17, align 8
  %18 = getelementptr inbounds nuw i8, ptr %12, i64 57
  %19 = load i16, ptr %18, align 1
  %20 = and i16 %19, 128
  %.not45 = icmp eq i16 %20, 0
  br i1 %.not45, label %52, label %21

21:                                               ; preds = %10
  %22 = load ptr, ptr %3, align 8
  %23 = icmp eq ptr %22, null
  br i1 %23, label %24, label %25

24:                                               ; preds = %21
  store ptr %12, ptr %3, align 8
  %.pre = load i16, ptr %18, align 1
  br label %25

25:                                               ; preds = %24, %21
  %26 = phi ptr [ %12, %24 ], [ %22, %21 ]
  %27 = phi i16 [ %.pre, %24 ], [ %19, %21 ]
  %28 = and i16 %27, 32
  %.not47 = icmp eq i16 %28, 0
  br i1 %.not47, label %29, label %.thread

.thread:                                          ; preds = %25
  store ptr %12, ptr %3, align 8
  br label %32

29:                                               ; preds = %25
  %.not48 = icmp eq ptr %12, %26
  br i1 %.not48, label %32, label %30

30:                                               ; preds = %29
  %31 = load i32, ptr %26, align 8
  br label %32

32:                                               ; preds = %.thread, %29, %30
  %33 = phi i32 [ %31, %30 ], [ 0, %29 ], [ 0, %.thread ]
  %34 = getelementptr inbounds nuw i8, ptr %12, i64 96
  store i32 %33, ptr %34, align 8
  %35 = getelementptr inbounds nuw i8, ptr %12, i64 64
  %36 = load ptr, ptr %3, align 8
  %37 = getelementptr inbounds nuw i8, ptr %36, i64 64
  call void @nstime_delta(ptr noundef nonnull %2, ptr noundef nonnull %35, ptr noundef nonnull %37)
  %38 = call i32 @nstime_cmp(ptr noundef nonnull %9, ptr noundef nonnull %2)
  %39 = icmp slt i32 %38, 0
  br i1 %39, label %40, label %41

40:                                               ; preds = %32
  call void @llvm.memcpy.p0.p0.i64(ptr noundef nonnull align 8 dereferenceable(16) %9, ptr noundef nonnull align 8 dereferenceable(16) %2, i64 16, i1 false)
  br label %41

41:                                               ; preds = %40, %32
  %42 = load i16, ptr %18, align 1
  %43 = and i16 %42, 1
  %.not49 = icmp eq i16 %43, 0
  br i1 %.not49, label %55, label %44

44:                                               ; preds = %41
  %45 = load ptr, ptr %4, align 8
  %46 = icmp eq ptr %45, null
  br i1 %46, label %47, label %48

47:                                               ; preds = %44
  store ptr %12, ptr %4, align 8
  br label %48

48:                                               ; preds = %47, %44
  %49 = phi ptr [ %12, %47 ], [ %45, %44 ]
  %50 = load i32, ptr %49, align 8
  %51 = getelementptr inbounds nuw i8, ptr %12, i64 100
  store i32 %50, ptr %51, align 4
  store ptr %12, ptr %4, align 8
  br label %55

52:                                               ; preds = %10
  %53 = and i16 %19, 32
  %.not46 = icmp eq i16 %53, 0
  br i1 %.not46, label %55, label %54

54:                                               ; preds = %52
  store ptr null, ptr %3, align 8
  br label %55

55:                                               ; preds = %52, %54, %41, %48
  %56 = load i16, ptr %18, align 1
  %57 = and i16 %56, 33
  %or.cond = icmp eq i16 %57, 0
  br i1 %or.cond, label %65, label %58

58:                                               ; preds = %55
  %59 = and i16 %56, 32
  %.not51 = icmp eq i16 %59, 0
  %60 = load i32, ptr %14, align 8
  br i1 %.not51, label %62, label %61

61:                                               ; preds = %58
  store i32 %60, ptr %5, align 8
  store i32 %60, ptr %17, align 8
  br label %65

62:                                               ; preds = %58
  %63 = load i32, ptr %5, align 8
  %64 = add i32 %63, %60
  store i32 %64, ptr %5, align 8
  br label %65

65:                                               ; preds = %55, %62, %61
  %66 = add i32 %.054, 1
  %67 = load i32, ptr %6, align 8
  %.not = icmp ugt i32 %66, %67
  br i1 %.not, label %._crit_edge, label %10, !llvm.loop !18

._crit_edge:                                      ; preds = %65, %1
  call void @llvm.lifetime.end.p0(i64 16, ptr nonnull %2) #23
  ret void
}